target datalayout = "e-m:e-p270:32:32-p271:32:32-p272:64:64-i64:64-i128:128-f80:128-n8:16:32:64-S128"
target triple = "x86_64-pc-linux-gnu"

; Function Attrs: inlinehint mustprogress nounwind uwtable
define internal noundef signext i8 @_ZL9U_SUCCESS10UErrorCode(i32 noundef %0) #2 {
  %2 = alloca i32, align 4
  store i32 %0, ptr %2, align 4, !tbaa !15
  %3 = load i32, ptr %2, align 4, !tbaa !15
  %4 = icmp sle i32 %3, 0
  %5 = zext i1 %4 to i8
  ret i8 %5
}

; Function Attrs: mustprogress uwtable
define i32 @ucurr_getDefaultFractionDigitsForUsage_77(ptr noundef %0, i32 noundef %1, ptr noundef %2) #1 {
  %4 = alloca ptr, align 8
  %5 = alloca i32, align 4
  %6 = alloca ptr, align 8
  %7 = alloca i32, align 4
  store ptr %0, ptr %4, align 8, !tbaa !39
  store i32 %1, ptr %5, align 4, !tbaa !107
  store ptr %2, ptr %6, align 8, !tbaa !22
  call void @llvm.lifetime.start.p0(i64 4, ptr %7) #12
  store i32 0, ptr %7, align 4, !tbaa !14
  %8 = load ptr, ptr %6, align 8, !tbaa !22
  %9 = load i32, ptr %8, align 4, !tbaa !15
  %10 = call noundef signext i8 @_ZL9U_SUCCESS10UErrorCode(i32 noundef %9)
  %11 = icmp ne i8 %10, 0
  br i1 %11, label %12, label %29

12:                                               ; preds = %3
  %13 = load i32, ptr %5, align 4, !tbaa !107
  switch i32 %13, label %26 [
    i32 0, label %14
    i32 1, label %20
  ]

14:                                               ; preds = %12
  %15 = load ptr, ptr %4, align 8, !tbaa !39
  %16 = load ptr, ptr %6, align 8, !tbaa !22
  %17 = call noundef ptr @_ZL13_findMetaDataPKDsR10UErrorCode(ptr noundef %15, ptr noundef nonnull align 4 dereferenceable(4) %16)
  %18 = getelementptr inbounds i32, ptr %17, i64 0
  %19 = load i32, ptr %18, align 4, !tbaa !14
  store i32 %19, ptr %7, align 4, !tbaa !14
  br label %28

20:                                               ; preds = %12
  %21 = load ptr, ptr %4, align 8, !tbaa !39
  %22 = load ptr, ptr %6, align 8, !tbaa !22
  %23 = call noundef ptr @_ZL13_findMetaDataPKDsR10UErrorCode(ptr noundef %21, ptr noundef nonnull align 4 dereferenceable(4) %22)
  %24 = getelementptr inbounds i32, ptr %23, i64 2
  %25 = load i32, ptr %24, align 4, !tbaa !14
  store i32 %25, ptr %7, align 4, !tbaa !14
  br label %28

26:                                               ; preds = %12
  %27 = load ptr, ptr %6, align 8, !tbaa !22
  store i32 16, ptr %27, align 4, !tbaa !15
  br label %28

28:                                               ; preds = %26, %20, %14
  br label %29

29:                                               ; preds = %28, %3
  %30 = load i32, ptr %7, align 4, !tbaa !14
  call void @llvm.lifetime.end.p0(i64 4, ptr %7) #12
  ret i32 %30
}

; Function Attrs: mustprogress uwtable
define i32 @ucurr_getDefaultFractionDigits_77(ptr noundef %0, ptr noundef %1) #1 {
  %3 = alloca ptr, align 8
  %4 = alloca ptr, align 8
  store ptr %0, ptr %3, align 8, !tbaa !39
  store ptr %1, ptr %4, align 8, !tbaa !22
  %5 = load ptr, ptr %3, align 8, !tbaa !39
  %6 = load ptr, ptr %4, align 8, !tbaa !22
  %7 = call i32 @ucurr_getDefaultFractionDigitsForUsage_77(ptr noundef %5, i32 noundef 0, ptr noundef %6)
  ret i32 %7
}