; Function Attrs: mustprogress uwtable
define i32 @ucurr_getDefaultFractionDigits_77(ptr noundef %0, ptr noundef %1) local_unnamed_addr #1 {
  %3 = load i32, ptr %1, align 4, !tbaa !13
  %4 = icmp sgt i32 %3, 0
  br i1 %4, label %ucurr_getDefaultFractionDigitsForUsage_77.exit, label %5

5:                                                ; preds = %2
  %6 = tail call fastcc noundef ptr @_ZL13_findMetaDataPKDsR10UErrorCode(ptr noundef %0, ptr noundef nonnull align 4 dereferenceable(4) %1)
  %7 = load i32, ptr %6, align 4, !tbaa !12
  br label %ucurr_getDefaultFractionDigitsForUsage_77.exit

ucurr_getDefaultFractionDigitsForUsage_77.exit:   ; preds = %2, %5
  %.0.i = phi i32 [ %7, %5 ], [ 0, %2 ]
  ret i32 %.0.i
}